; ModuleID = 'source-C-CXX/59/1832.c'
source_filename = "source-C-CXX/59/1832.c"
target datalayout = "e-m:e-p270:32:32-p271:32:32-p272:64:64-i64:64-f80:128-n8:16:32:64-S128"
target triple = "x86_64-pc-linux-gnu"

@.str = private unnamed_addr constant [3 x i8] c"%d\00", align 1
@.str.1 = private unnamed_addr constant [6 x i8] c"empty\00", align 1
@.str.2 = private unnamed_addr constant [7 x i8] c"%d %d\0A\00", align 1

; Function Attrs: nofree nounwind sspstrong uwtable
define dso_local i32 @sushu(i32 %0) local_unnamed_addr #0 {
  %2 = sitofp i32 %0 to double
  %3 = tail call double @sqrt(double %2) #4
  %4 = fptosi double %3 to i32
  %5 = icmp slt i32 %4, 3
  br i1 %5, label %13, label %9

6:                                                ; preds = %9
  %7 = add nuw i32 %10, 1
  %8 = icmp eq i32 %10, %4
  br i1 %8, label %13, label %9, !llvm.loop !5

9:                                                ; preds = %1, %6
  %10 = phi i32 [ %7, %6 ], [ 3, %1 ]
  %11 = srem i32 %0, %10
  %12 = icmp eq i32 %11, 0
  br i1 %12, label %13, label %6

13:                                               ; preds = %9, %6, %1
  %14 = phi i32 [ 1, %1 ], [ 1, %6 ], [ 0, %9 ]
  ret i32 %14
}

; Function Attrs: argmemonly mustprogress nofree nosync nounwind willreturn
declare void @llvm.lifetime.start.p0i8(i64 immarg, i8* nocapture) #1

; Function Attrs: mustprogress nofree nounwind willreturn
declare double @sqrt(double) local_unnamed_addr #2

; Function Attrs: argmemonly mustprogress nofree nosync nounwind willreturn
declare void @llvm.lifetime.end.p0i8(i64 immarg, i8* nocapture) #1

; Function Attrs: nofree nounwind sspstrong uwtable
define dso_local i32 @main() local_unnamed_addr #0 {
  %1 = alloca i32, align 4
  %2 = bitcast i32* %1 to i8*
  call void @llvm.lifetime.start.p0i8(i64 4, i8* nonnull %2) #4
  %3 = call i32 (i8*, ...) @__isoc99_scanf(i8* getelementptr inbounds ([3 x i8], [3 x i8]* @.str, i64 0, i64 0), i32* nonnull %1)
  %4 = load i32, i32* %1, align 4, !tbaa !7
  %5 = icmp slt i32 %4, 5
  br i1 %5, label %6, label %10

6:                                                ; preds = %0
  %7 = call i32 (i8*, ...) @printf(i8* nonnull dereferenceable(1) getelementptr inbounds ([6 x i8], [6 x i8]* @.str.1, i64 0, i64 0))
  %8 = load i32, i32* %1, align 4, !tbaa !7
  %9 = icmp slt i32 %8, 5
  br i1 %9, label %47, label %10

10:                                               ; preds = %0, %6
  br label %11

11:                                               ; preds = %10, %43
  %12 = phi i32 [ %13, %43 ], [ 3, %10 ]
  %13 = add nuw nsw i32 %12, 2
  %14 = sitofp i32 %12 to double
  %15 = call double @sqrt(double %14) #4
  %16 = fptosi double %15 to i32
  %17 = icmp slt i32 %16, 3
  br i1 %17, label %27, label %18

18:                                               ; preds = %11, %18
  %19 = phi i32 [ %22, %18 ], [ 3, %11 ]
  %20 = urem i32 %12, %19
  %21 = icmp eq i32 %20, 0
  %22 = add nuw i32 %19, 1
  %23 = icmp eq i32 %19, %16
  %24 = select i1 %21, i1 true, i1 %23
  br i1 %24, label %25, label %18, !llvm.loop !5

25:                                               ; preds = %18
  %26 = xor i1 %21, true
  br label %27

27:                                               ; preds = %25, %11
  %28 = phi i1 [ true, %11 ], [ %26, %25 ]
  %29 = sitofp i32 %13 to double
  %30 = call double @sqrt(double %29) #4
  %31 = fptosi double %30 to i32
  %32 = icmp slt i32 %31, 3
  br i1 %32, label %40, label %36

33:                                               ; preds = %36
  %34 = add nuw i32 %37, 1
  %35 = icmp eq i32 %37, %31
  br i1 %35, label %40, label %36, !llvm.loop !5

36:                                               ; preds = %27, %33
  %37 = phi i32 [ %34, %33 ], [ 3, %27 ]
  %38 = srem i32 %13, %37
  %39 = icmp eq i32 %38, 0
  br i1 %39, label %43, label %33

40:                                               ; preds = %33, %27
  br i1 %28, label %41, label %43

41:                                               ; preds = %40
  %42 = call i32 (i8*, ...) @printf(i8* nonnull dereferenceable(1) getelementptr inbounds ([7 x i8], [7 x i8]* @.str.2, i64 0, i64 0), i32 %12, i32 %13)
  br label %43

43:                                               ; preds = %36, %40, %41
  %44 = load i32, i32* %1, align 4, !tbaa !7
  %45 = add nsw i32 %44, -2
  %46 = icmp sgt i32 %13, %45
  br i1 %46, label %47, label %11, !llvm.loop !11

47:                                               ; preds = %43, %6
  call void @llvm.lifetime.end.p0i8(i64 4, i8* nonnull %2) #4
  ret i32 0
}

; Function Attrs: nofree nounwind
declare noundef i32 @__isoc99_scanf(i8* nocapture noundef readonly, ...) local_unnamed_addr #3

; Function Attrs: nofree nounwind
declare noundef i32 @printf(i8* nocapture noundef readonly, ...) local_unnamed_addr #3


!llvm.module.flags = !{!0, !1, !2, !3}
!llvm.ident = !{!4}

!0 = !{i32 1, !"wchar_size", i32 4}
!1 = !{i32 7, !"PIC Level", i32 2}
!2 = !{i32 7, !"PIE Level", i32 2}
!3 = !{i32 7, !"uwtable", i32 1}
!4 = !{!"clang version 13.0.0"}
!5 = distinct !{!5, !6}
!6 = !{!"llvm.loop.mustprogress"}
!7 = !{!8, !8, i64 0}
!8 = !{!"int", !9, i64 0}
!9 = !{!"omnipotent char", !10, i64 0}
!10 = !{!"Simple C/C++ TBAA"}
!11 = distinct !{!11, !6}
